; Function Attrs: mustprogress nofree norecurse nosync nounwind willreturn memory(argmem: read) uwtable
define internal i32 @Predictor7_SSE2(ptr noundef readonly captures(none) %0, ptr noundef readonly captures(none) %1) #1 {
  %3 = load i32, ptr %0, align 4, !tbaa !7
  %4 = load i32, ptr %1, align 4, !tbaa !7
  %5 = insertelement <4 x i32> <i32 poison, i32 0, i32 0, i32 0>, i32 %3, i64 0
  %6 = insertelement <4 x i32> <i32 poison, i32 0, i32 0, i32 0>, i32 %4, i64 0
  %7 = bitcast <4 x i32> %5 to <16 x i8>
  %8 = bitcast <4 x i32> %6 to <16 x i8>
  %9 = tail call <16 x i8> @llvm.x86.sse2.pavg.b(<16 x i8> %7, <16 x i8> %8)
  %10 = xor <4 x i32> %6, %5
  %11 = bitcast <4 x i32> %10 to <16 x i8>
  %12 = and <16 x i8> %11, <i8 1, i8 1, i8 1, i8 1, i8 poison, i8 poison, i8 poison, i8 poison, i8 poison, i8 poison, i8 poison, i8 poison, i8 poison, i8 poison, i8 poison, i8 poison>
  %13 = sub <16 x i8> %9, %12
  %14 = bitcast <16 x i8> %13 to <4 x i32>
  %15 = extractelement <4 x i32> %14, i64 0
  ret i32 %15
}